target datalayout = "e-m:e-p270:32:32-p271:32:32-p272:64:64-i64:64-i128:128-f80:128-n8:16:32:64-S128"
target triple = "x86_64-pc-linux-gnu"

%struct.rb_thread_struct = type { %struct.ccan_list_node, i64, ptr, ptr, ptr, ptr, %struct.rb_thread_sched_item, i8, i32, i64, ptr, i64, i64, i8, i8, i32, ptr, i64, i64, i64, i64, %union.pthread_mutex_t, %struct.rb_unblock_callback, i64, ptr, %struct.ccan_list_head, ptr, %union.anon.10, i32, i64, ptr, i64, i32, i64, ptr, %struct.rb_ext_config }
%struct.ccan_list_node = type { ptr, ptr }
%struct.rb_thread_sched_item = type { %struct.anon.8, %struct.rb_thread_sched_waiting, i8, i8, ptr, ptr }
%struct.anon.8 = type { %struct.ccan_list_node, %struct.ccan_list_node, %struct.ccan_list_node, %struct.ccan_list_node, %struct.ccan_list_node }
%struct.rb_thread_sched_waiting = type { i32, %struct.anon.9, %struct.ccan_list_node }
%struct.anon.9 = type { i64, i32, i32 }
%union.pthread_mutex_t = type { %struct.__pthread_mutex_s }
%struct.__pthread_mutex_s = type { i32, i32, i32, i32, i32, i16, i16, %struct.__pthread_internal_list }
%struct.__pthread_internal_list = type { ptr, ptr }
%struct.rb_unblock_callback = type { ptr, ptr }
%struct.ccan_list_head = type { %struct.ccan_list_node }
%union.anon.10 = type { %struct.anon.11 }
%struct.anon.11 = type { i64, i64, i32 }
%struct.rb_ext_config = type { i8 }

; Function Attrs: nounwind sspstrong uwtable
define internal void @thread_compact(ptr noundef %0) #0 {
  %2 = alloca ptr, align 8
  %3 = alloca ptr, align 8
  store ptr %0, ptr %2, align 8, !tbaa !77
  call void @llvm.lifetime.start.p0(i64 8, ptr %3) #21
  %4 = load ptr, ptr %2, align 8, !tbaa !77
  store ptr %4, ptr %3, align 8, !tbaa !71
  %5 = load ptr, ptr %3, align 8, !tbaa !71
  %6 = getelementptr inbounds nuw %struct.rb_thread_struct, ptr %5, i32 0, i32 1
  %7 = load i64, ptr %6, align 8, !tbaa !572
  %8 = call i64 @rb_gc_location(i64 noundef %7)
  %9 = load ptr, ptr %3, align 8, !tbaa !71
  %10 = getelementptr inbounds nuw %struct.rb_thread_struct, ptr %9, i32 0, i32 1
  store i64 %8, ptr %10, align 8, !tbaa !572
  %11 = load ptr, ptr %3, align 8, !tbaa !71
  %12 = getelementptr inbounds nuw %struct.rb_thread_struct, ptr %11, i32 0, i32 30
  %13 = load ptr, ptr %12, align 8, !tbaa !567
  %14 = icmp ne ptr %13, null
  br i1 %14, label %19, label %15

15:                                               ; preds = %1
  %16 = load ptr, ptr %3, align 8, !tbaa !71
  %17 = getelementptr inbounds nuw %struct.rb_thread_struct, ptr %16, i32 0, i32 5
  %18 = load ptr, ptr %17, align 8, !tbaa !396
  call void @rb_execution_context_update(ptr noundef %18)
  br label %19

19:                                               ; preds = %15, %1
  call void @llvm.lifetime.end.p0(i64 8, ptr %3) #21
  ret void
}