; Function Attrs: nounwind sspstrong uwtable
define internal void @thread_compact(ptr noundef captures(none) %0) #2 {
  %2 = getelementptr inbounds nuw i8, ptr %0, i64 16
  %3 = load i64, ptr %2, align 8, !tbaa !595
  %4 = tail call i64 @rb_gc_location(i64 noundef %3) #21
  store i64 %4, ptr %2, align 8, !tbaa !595
  %5 = getelementptr inbounds nuw i8, ptr %0, i64 424
  %6 = load ptr, ptr %5, align 8, !tbaa !590
  %.not = icmp eq ptr %6, null
  br i1 %.not, label %7, label %10

7:                                                ; preds = %1
  %8 = getelementptr inbounds nuw i8, ptr %0, i64 48
  %9 = load ptr, ptr %8, align 8, !tbaa !440
  tail call void @rb_execution_context_update(ptr noundef %9)
  br label %10

10:                                               ; preds = %7, %1
  ret void
}